target datalayout = "e-m:e-p270:32:32-p271:32:32-p272:64:64-i64:64-i128:128-f80:128-n8:16:32:64-S128"
target triple = "x86_64-pc-linux-gnu"

%struct.AVCodecContext = type { ptr, i32, i32, ptr, i32, i32, ptr, ptr, ptr, i64, i32, i32, ptr, i32, %struct.AVRational, %struct.AVRational, %struct.AVRational, i32, i32, i32, i32, i32, %struct.AVRational, i32, i32, i32, i32, i32, i32, i32, i32, i32, i32, i32, ptr, ptr, i32, float, float, float, float, float, float, float, float, float, i32, i32, i32, i32, i32, i32, i32, i32, i32, i32, i32, i32, ptr, ptr, ptr, i32, i32, i32, i32, i32, i32, i32, i32, i32, i32, %struct.AVChannelLayout, i32, i32, i32, i32, i32, i32, i32, i32, ptr, i32, i32, i32, float, float, i32, i32, i32, i32, i32, ptr, i64, i64, float, float, i32, i32, ptr, ptr, i32, i32, i32, i32, i32, ptr, ptr, ptr, ptr, i32, i32, [8 x i64], i32, i32, i32, i32, i32, i32, i32, ptr, ptr, i32, i32, i32, i32, i32, i32, i32, i32, i32, i32, ptr, ptr, i32, i32, ptr, ptr, ptr, ptr, i32, i32, i64, i32, i32, i64, ptr, i64, ptr, i32, ptr, i32 }
%struct.AVRational = type { i32, i32 }
%struct.AVChannelLayout = type { i32, i32, %union.anon.0, ptr }
%union.anon.0 = type { i64 }
%struct.FFV1Context = type { ptr, ptr, [256 x [2 x i64]], [8 x ptr], i32, i32, i32, i32, i32, i32, i32, i32, i32, i32, i64, i32, %struct.ProgressFrame, %struct.ProgressFrame, ptr, ptr, i32, i32, i32, ptr, i32, i32, [8 x [5 x [256 x i16]]], [8 x i32], [256 x i8], [8 x ptr], i32, i32, i32, i32, i32, i32, i32, i32, i32, i32, i32, i32, i32, i32, i32, i32, i32, i32, i32, ptr, ptr, i8 }
%struct.ProgressFrame = type { ptr, ptr }
%struct.FFV1SliceContext = type { ptr, ptr, i32, i32, i32, i32, i32, i32, i32, i32, i32, i32, i32, ptr, %struct.PutBitContext, %struct.RangeCoder, i32, %union.anon.1, [4 x i32], [4 x ptr], [4 x ptr], [4 x ptr], [4 x i32], [4 x i32], [4 x ptr] }
%struct.PutBitContext = type { i32, i32, ptr, ptr, ptr }
%struct.RangeCoder = type { i32, i32, i32, i32, [256 x i8], [256 x i8], ptr, ptr, ptr, i32 }
%union.anon.1 = type { %struct.anon.2 }
%struct.anon.2 = type { [256 x [2 x i64]], [8 x ptr] }

; Function Attrs: nounwind uwtable
define internal i32 @update_thread_context(ptr noundef %0, ptr noundef %1) #0 {
  %3 = alloca i32, align 4
  %4 = alloca ptr, align 8
  %5 = alloca ptr, align 8
  %6 = alloca ptr, align 8
  %7 = alloca ptr, align 8
  %8 = alloca i32, align 4
  %9 = alloca i32, align 4
  %10 = alloca ptr, align 8
  %11 = alloca ptr, align 8
  store ptr %0, ptr %4, align 8, !tbaa !4
  store ptr %1, ptr %5, align 8, !tbaa !4
  call void @llvm.lifetime.start.p0(i64 8, ptr %6) #13
  %12 = load ptr, ptr %5, align 8, !tbaa !4
  %13 = getelementptr inbounds nuw %struct.AVCodecContext, ptr %12, i32 0, i32 6
  %14 = load ptr, ptr %13, align 8, !tbaa !9
  store ptr %14, ptr %6, align 8, !tbaa !29
  call void @llvm.lifetime.start.p0(i64 8, ptr %7) #13
  %15 = load ptr, ptr %4, align 8, !tbaa !4
  %16 = getelementptr inbounds nuw %struct.AVCodecContext, ptr %15, i32 0, i32 6
  %17 = load ptr, ptr %16, align 8, !tbaa !9
  store ptr %17, ptr %7, align 8, !tbaa !29
  %18 = load ptr, ptr %4, align 8, !tbaa !4
  %19 = load ptr, ptr %5, align 8, !tbaa !4
  %20 = icmp eq ptr %18, %19
  br i1 %20, label %21, label %22

21:                                               ; preds = %2
  store i32 0, ptr %3, align 4
  store i32 1, ptr %8, align 4
  br label %206

22:                                               ; preds = %2
  %23 = load ptr, ptr %6, align 8, !tbaa !29
  %24 = getelementptr inbounds nuw %struct.FFV1Context, ptr %23, i32 0, i32 4
  %25 = load i32, ptr %24, align 8, !tbaa !31
  %26 = load ptr, ptr %7, align 8, !tbaa !29
  %27 = getelementptr inbounds nuw %struct.FFV1Context, ptr %26, i32 0, i32 4
  store i32 %25, ptr %27, align 8, !tbaa !31
  %28 = load ptr, ptr %6, align 8, !tbaa !29
  %29 = getelementptr inbounds nuw %struct.FFV1Context, ptr %28, i32 0, i32 5
  %30 = load i32, ptr %29, align 4, !tbaa !37
  %31 = load ptr, ptr %7, align 8, !tbaa !29
  %32 = getelementptr inbounds nuw %struct.FFV1Context, ptr %31, i32 0, i32 5
  store i32 %30, ptr %32, align 4, !tbaa !37
  %33 = load ptr, ptr %6, align 8, !tbaa !29
  %34 = getelementptr inbounds nuw %struct.FFV1Context, ptr %33, i32 0, i32 6
  %35 = load i32, ptr %34, align 8, !tbaa !38
  %36 = load ptr, ptr %7, align 8, !tbaa !29
  %37 = getelementptr inbounds nuw %struct.FFV1Context, ptr %36, i32 0, i32 6
  store i32 %35, ptr %37, align 8, !tbaa !38
  %38 = load ptr, ptr %6, align 8, !tbaa !29
  %39 = getelementptr inbounds nuw %struct.FFV1Context, ptr %38, i32 0, i32 9
  %40 = load i32, ptr %39, align 4, !tbaa !39
  %41 = load ptr, ptr %7, align 8, !tbaa !29
  %42 = getelementptr inbounds nuw %struct.FFV1Context, ptr %41, i32 0, i32 9
  store i32 %40, ptr %42, align 4, !tbaa !39
  %43 = load ptr, ptr %6, align 8, !tbaa !29
  %44 = getelementptr inbounds nuw %struct.FFV1Context, ptr %43, i32 0, i32 10
  %45 = load i32, ptr %44, align 8, !tbaa !40
  %46 = load ptr, ptr %7, align 8, !tbaa !29
  %47 = getelementptr inbounds nuw %struct.FFV1Context, ptr %46, i32 0, i32 10
  store i32 %45, ptr %47, align 8, !tbaa !40
  %48 = load ptr, ptr %6, align 8, !tbaa !29
  %49 = getelementptr inbounds nuw %struct.FFV1Context, ptr %48, i32 0, i32 11
  %50 = load i32, ptr %49, align 4, !tbaa !41
  %51 = load ptr, ptr %7, align 8, !tbaa !29
  %52 = getelementptr inbounds nuw %struct.FFV1Context, ptr %51, i32 0, i32 11
  store i32 %50, ptr %52, align 4, !tbaa !41
  %53 = load ptr, ptr %6, align 8, !tbaa !29
  %54 = getelementptr inbounds nuw %struct.FFV1Context, ptr %53, i32 0, i32 12
  %55 = load i32, ptr %54, align 8, !tbaa !42
  %56 = load ptr, ptr %7, align 8, !tbaa !29
  %57 = getelementptr inbounds nuw %struct.FFV1Context, ptr %56, i32 0, i32 12
  store i32 %55, ptr %57, align 8, !tbaa !42
  %58 = load ptr, ptr %6, align 8, !tbaa !29
  %59 = getelementptr inbounds nuw %struct.FFV1Context, ptr %58, i32 0, i32 24
  %60 = load i32, ptr %59, align 8, !tbaa !43
  %61 = load ptr, ptr %7, align 8, !tbaa !29
  %62 = getelementptr inbounds nuw %struct.FFV1Context, ptr %61, i32 0, i32 24
  store i32 %60, ptr %62, align 8, !tbaa !43
  %63 = load ptr, ptr %6, align 8, !tbaa !29
  %64 = getelementptr inbounds nuw %struct.FFV1Context, ptr %63, i32 0, i32 25
  %65 = load i32, ptr %64, align 4, !tbaa !44
  %66 = load ptr, ptr %7, align 8, !tbaa !29
  %67 = getelementptr inbounds nuw %struct.FFV1Context, ptr %66, i32 0, i32 25
  store i32 %65, ptr %67, align 4, !tbaa !44
  %68 = load ptr, ptr %6, align 8, !tbaa !29
  %69 = getelementptr inbounds nuw %struct.FFV1Context, ptr %68, i32 0, i32 30
  %70 = load i32, ptr %69, align 8, !tbaa !45
  %71 = load ptr, ptr %7, align 8, !tbaa !29
  %72 = getelementptr inbounds nuw %struct.FFV1Context, ptr %71, i32 0, i32 30
  store i32 %70, ptr %72, align 8, !tbaa !45
  %73 = load ptr, ptr %6, align 8, !tbaa !29
  %74 = getelementptr inbounds nuw %struct.FFV1Context, ptr %73, i32 0, i32 21
  %75 = load i32, ptr %74, align 4, !tbaa !46
  %76 = load ptr, ptr %7, align 8, !tbaa !29
  %77 = getelementptr inbounds nuw %struct.FFV1Context, ptr %76, i32 0, i32 21
  store i32 %75, ptr %77, align 4, !tbaa !46
  %78 = load ptr, ptr %6, align 8, !tbaa !29
  %79 = getelementptr inbounds nuw %struct.FFV1Context, ptr %78, i32 0, i32 22
  %80 = load i32, ptr %79, align 8, !tbaa !47
  %81 = load ptr, ptr %7, align 8, !tbaa !29
  %82 = getelementptr inbounds nuw %struct.FFV1Context, ptr %81, i32 0, i32 22
  store i32 %80, ptr %82, align 8, !tbaa !47
  %83 = load ptr, ptr %6, align 8, !tbaa !29
  %84 = getelementptr inbounds nuw %struct.FFV1Context, ptr %83, i32 0, i32 36
  %85 = load i32, ptr %84, align 8, !tbaa !48
  %86 = load ptr, ptr %7, align 8, !tbaa !29
  %87 = getelementptr inbounds nuw %struct.FFV1Context, ptr %86, i32 0, i32 36
  store i32 %85, ptr %87, align 8, !tbaa !48
  %88 = load ptr, ptr %6, align 8, !tbaa !29
  %89 = getelementptr inbounds nuw %struct.FFV1Context, ptr %88, i32 0, i32 37
  %90 = load i32, ptr %89, align 4, !tbaa !49
  %91 = load ptr, ptr %7, align 8, !tbaa !29
  %92 = getelementptr inbounds nuw %struct.FFV1Context, ptr %91, i32 0, i32 37
  store i32 %90, ptr %92, align 4, !tbaa !49
  %93 = load ptr, ptr %6, align 8, !tbaa !29
  %94 = getelementptr inbounds nuw %struct.FFV1Context, ptr %93, i32 0, i32 38
  %95 = load i32, ptr %94, align 8, !tbaa !50
  %96 = load ptr, ptr %7, align 8, !tbaa !29
  %97 = getelementptr inbounds nuw %struct.FFV1Context, ptr %96, i32 0, i32 38
  store i32 %95, ptr %97, align 8, !tbaa !50
  %98 = load ptr, ptr %6, align 8, !tbaa !29
  %99 = getelementptr inbounds nuw %struct.FFV1Context, ptr %98, i32 0, i32 42
  %100 = load i32, ptr %99, align 8, !tbaa !51
  %101 = load ptr, ptr %7, align 8, !tbaa !29
  %102 = getelementptr inbounds nuw %struct.FFV1Context, ptr %101, i32 0, i32 42
  store i32 %100, ptr %102, align 8, !tbaa !51
  %103 = load ptr, ptr %6, align 8, !tbaa !29
  %104 = getelementptr inbounds nuw %struct.FFV1Context, ptr %103, i32 0, i32 45
  %105 = load i32, ptr %104, align 4, !tbaa !52
  %106 = load ptr, ptr %7, align 8, !tbaa !29
  %107 = getelementptr inbounds nuw %struct.FFV1Context, ptr %106, i32 0, i32 45
  store i32 %105, ptr %107, align 4, !tbaa !52
  %108 = load ptr, ptr %6, align 8, !tbaa !29
  %109 = getelementptr inbounds nuw %struct.FFV1Context, ptr %108, i32 0, i32 35
  %110 = load i32, ptr %109, align 4, !tbaa !53
  %111 = load ptr, ptr %7, align 8, !tbaa !29
  %112 = getelementptr inbounds nuw %struct.FFV1Context, ptr %111, i32 0, i32 35
  store i32 %110, ptr %112, align 4, !tbaa !53
  %113 = load ptr, ptr %7, align 8, !tbaa !29
  %114 = getelementptr inbounds nuw %struct.FFV1Context, ptr %113, i32 0, i32 28
  %115 = getelementptr inbounds [256 x i8], ptr %114, i64 0, i64 0
  %116 = load ptr, ptr %6, align 8, !tbaa !29
  %117 = getelementptr inbounds nuw %struct.FFV1Context, ptr %116, i32 0, i32 28
  %118 = getelementptr inbounds [256 x i8], ptr %117, i64 0, i64 0
  call void @llvm.memcpy.p0.p0.i64(ptr align 8 %115, ptr align 8 %118, i64 256, i1 false)
  %119 = load ptr, ptr %6, align 8, !tbaa !29
  %120 = getelementptr inbounds nuw %struct.FFV1Context, ptr %119, i32 0, i32 4
  %121 = load i32, ptr %120, align 8, !tbaa !31
  %122 = icmp slt i32 %121, 2
  br i1 %122, label %123, label %132

123:                                              ; preds = %22
  %124 = load ptr, ptr %7, align 8, !tbaa !29
  %125 = getelementptr inbounds nuw %struct.FFV1Context, ptr %124, i32 0, i32 26
  %126 = getelementptr inbounds [8 x [5 x [256 x i16]]], ptr %125, i64 0, i64 0
  %127 = getelementptr inbounds [5 x [256 x i16]], ptr %126, i64 0, i64 0
  %128 = load ptr, ptr %6, align 8, !tbaa !29
  %129 = getelementptr inbounds nuw %struct.FFV1Context, ptr %128, i32 0, i32 26
  %130 = getelementptr inbounds [8 x [5 x [256 x i16]]], ptr %129, i64 0, i64 0
  %131 = getelementptr inbounds [5 x [256 x i16]], ptr %130, i64 0, i64 0
  call void @llvm.memcpy.p0.p0.i64(ptr align 8 %127, ptr align 8 %131, i64 2560, i1 false)
  br label %132

132:                                              ; preds = %123, %22
  call void @llvm.lifetime.start.p0(i64 4, ptr %9) #13
  store i32 0, ptr %9, align 4, !tbaa !54
  br label %133

133:                                              ; preds = %188, %132
  %134 = load i32, ptr %9, align 4, !tbaa !54
  %135 = load ptr, ptr %7, align 8, !tbaa !29
  %136 = getelementptr inbounds nuw %struct.FFV1Context, ptr %135, i32 0, i32 48
  %137 = load i32, ptr %136, align 8, !tbaa !55
  %138 = load ptr, ptr %7, align 8, !tbaa !29
  %139 = getelementptr inbounds nuw %struct.FFV1Context, ptr %138, i32 0, i32 47
  %140 = load i32, ptr %139, align 4, !tbaa !56
  %141 = mul nsw i32 %137, %140
  %142 = icmp slt i32 %134, %141
  br i1 %142, label %144, label %143

143:                                              ; preds = %133
  store i32 2, ptr %8, align 4
  call void @llvm.lifetime.end.p0(i64 4, ptr %9) #13
  br label %191

144:                                              ; preds = %133
  call void @llvm.lifetime.start.p0(i64 8, ptr %10) #13
  %145 = load ptr, ptr %7, align 8, !tbaa !29
  %146 = getelementptr inbounds nuw %struct.FFV1Context, ptr %145, i32 0, i32 49
  %147 = load ptr, ptr %146, align 8, !tbaa !57
  %148 = load i32, ptr %9, align 4, !tbaa !54
  %149 = sext i32 %148 to i64
  %150 = getelementptr inbounds %struct.FFV1SliceContext, ptr %147, i64 %149
  store ptr %150, ptr %10, align 8, !tbaa !58
  call void @llvm.lifetime.start.p0(i64 8, ptr %11) #13
  %151 = load ptr, ptr %6, align 8, !tbaa !29
  %152 = getelementptr inbounds nuw %struct.FFV1Context, ptr %151, i32 0, i32 49
  %153 = load ptr, ptr %152, align 8, !tbaa !57
  %154 = load i32, ptr %9, align 4, !tbaa !54
  %155 = sext i32 %154 to i64
  %156 = getelementptr inbounds %struct.FFV1SliceContext, ptr %153, i64 %155
  store ptr %156, ptr %11, align 8, !tbaa !58
  %157 = load ptr, ptr %10, align 8, !tbaa !58
  %158 = getelementptr inbounds nuw %struct.FFV1SliceContext, ptr %157, i32 0, i32 13
  %159 = load ptr, ptr %11, align 8, !tbaa !58
  %160 = getelementptr inbounds nuw %struct.FFV1SliceContext, ptr %159, i32 0, i32 13
  %161 = load ptr, ptr %160, align 8, !tbaa !59
  call void @av_refstruct_replace(ptr noundef %158, ptr noundef %161)
  %162 = load ptr, ptr %6, align 8, !tbaa !29
  %163 = getelementptr inbounds nuw %struct.FFV1Context, ptr %162, i32 0, i32 4
  %164 = load i32, ptr %163, align 8, !tbaa !31
  %165 = icmp slt i32 %164, 3
  br i1 %165, label %166, label %187

166:                                              ; preds = %144
  %167 = load ptr, ptr %11, align 8, !tbaa !58
  %168 = getelementptr inbounds nuw %struct.FFV1SliceContext, ptr %167, i32 0, i32 4
  %169 = load i32, ptr %168, align 8, !tbaa !64
  %170 = load ptr, ptr %10, align 8, !tbaa !58
  %171 = getelementptr inbounds nuw %struct.FFV1SliceContext, ptr %170, i32 0, i32 4
  store i32 %169, ptr %171, align 8, !tbaa !64
  %172 = load ptr, ptr %11, align 8, !tbaa !58
  %173 = getelementptr inbounds nuw %struct.FFV1SliceContext, ptr %172, i32 0, i32 5
  %174 = load i32, ptr %173, align 4, !tbaa !65
  %175 = load ptr, ptr %10, align 8, !tbaa !58
  %176 = getelementptr inbounds nuw %struct.FFV1SliceContext, ptr %175, i32 0, i32 5
  store i32 %174, ptr %176, align 4, !tbaa !65
  %177 = load ptr, ptr %11, align 8, !tbaa !58
  %178 = getelementptr inbounds nuw %struct.FFV1SliceContext, ptr %177, i32 0, i32 2
  %179 = load i32, ptr %178, align 8, !tbaa !66
  %180 = load ptr, ptr %10, align 8, !tbaa !58
  %181 = getelementptr inbounds nuw %struct.FFV1SliceContext, ptr %180, i32 0, i32 2
  store i32 %179, ptr %181, align 8, !tbaa !66
  %182 = load ptr, ptr %11, align 8, !tbaa !58
  %183 = getelementptr inbounds nuw %struct.FFV1SliceContext, ptr %182, i32 0, i32 3
  %184 = load i32, ptr %183, align 4, !tbaa !67
  %185 = load ptr, ptr %10, align 8, !tbaa !58
  %186 = getelementptr inbounds nuw %struct.FFV1SliceContext, ptr %185, i32 0, i32 3
  store i32 %184, ptr %186, align 4, !tbaa !67
  br label %187

187:                                              ; preds = %166, %144
  call void @llvm.lifetime.end.p0(i64 8, ptr %11) #13
  call void @llvm.lifetime.end.p0(i64 8, ptr %10) #13
  br label %188

188:                                              ; preds = %187
  %189 = load i32, ptr %9, align 4, !tbaa !54
  %190 = add nsw i32 %189, 1
  store i32 %190, ptr %9, align 4, !tbaa !54
  br label %133, !llvm.loop !68

191:                                              ; preds = %143
  %192 = load ptr, ptr %7, align 8, !tbaa !29
  %193 = getelementptr inbounds nuw %struct.FFV1Context, ptr %192, i32 0, i32 50
  %194 = load ptr, ptr %6, align 8, !tbaa !29
  %195 = getelementptr inbounds nuw %struct.FFV1Context, ptr %194, i32 0, i32 50
  %196 = load ptr, ptr %195, align 8, !tbaa !70
  call void @av_refstruct_replace(ptr noundef %193, ptr noundef %196)
  %197 = load ptr, ptr %7, align 8, !tbaa !29
  %198 = getelementptr inbounds nuw %struct.FFV1Context, ptr %197, i32 0, i32 16
  %199 = load ptr, ptr %6, align 8, !tbaa !29
  %200 = getelementptr inbounds nuw %struct.FFV1Context, ptr %199, i32 0, i32 16
  call void @ff_progress_frame_replace(ptr noundef %198, ptr noundef %200)
  %201 = load ptr, ptr %7, align 8, !tbaa !29
  %202 = getelementptr inbounds nuw %struct.FFV1Context, ptr %201, i32 0, i32 18
  %203 = load ptr, ptr %6, align 8, !tbaa !29
  %204 = getelementptr inbounds nuw %struct.FFV1Context, ptr %203, i32 0, i32 18
  %205 = load ptr, ptr %204, align 8, !tbaa !71
  call void @av_refstruct_replace(ptr noundef %202, ptr noundef %205)
  store i32 0, ptr %3, align 4
  store i32 1, ptr %8, align 4
  br label %206

206:                                              ; preds = %191, %21
  call void @llvm.lifetime.end.p0(i64 8, ptr %7) #13
  call void @llvm.lifetime.end.p0(i64 8, ptr %6) #13
  %207 = load i32, ptr %3, align 4
  ret i32 %207
}