; Function Attrs: nounwind uwtable
define internal noundef i32 @update_thread_context(ptr noundef readonly captures(address) %0, ptr noundef readonly captures(address) %1) #0 {
  %3 = getelementptr inbounds nuw i8, ptr %1, i64 32
  %4 = load ptr, ptr %3, align 8, !tbaa !4
  %5 = getelementptr inbounds nuw i8, ptr %0, i64 32
  %6 = load ptr, ptr %5, align 8, !tbaa !4
  %7 = icmp eq ptr %0, %1
  br i1 %7, label %116, label %8

8:                                                ; preds = %2
  %9 = getelementptr inbounds nuw i8, ptr %4, i64 4176
  %10 = load i32, ptr %9, align 8, !tbaa !27
  %11 = getelementptr inbounds nuw i8, ptr %6, i64 4176
  store i32 %10, ptr %11, align 8, !tbaa !27
  %12 = getelementptr inbounds nuw i8, ptr %4, i64 4180
  %13 = load i32, ptr %12, align 4, !tbaa !34
  %14 = getelementptr inbounds nuw i8, ptr %6, i64 4180
  store i32 %13, ptr %14, align 4, !tbaa !34
  %15 = getelementptr inbounds nuw i8, ptr %4, i64 4184
  %16 = load i32, ptr %15, align 8, !tbaa !35
  %17 = getelementptr inbounds nuw i8, ptr %6, i64 4184
  store i32 %16, ptr %17, align 8, !tbaa !35
  %18 = getelementptr inbounds nuw i8, ptr %4, i64 4196
  %19 = load i32, ptr %18, align 4, !tbaa !36
  %20 = getelementptr inbounds nuw i8, ptr %6, i64 4196
  store i32 %19, ptr %20, align 4, !tbaa !36
  %21 = getelementptr inbounds nuw i8, ptr %4, i64 4200
  %22 = load i32, ptr %21, align 8, !tbaa !37
  %23 = getelementptr inbounds nuw i8, ptr %6, i64 4200
  store i32 %22, ptr %23, align 8, !tbaa !37
  %24 = getelementptr inbounds nuw i8, ptr %4, i64 4204
  %25 = load i32, ptr %24, align 4, !tbaa !38
  %26 = getelementptr inbounds nuw i8, ptr %6, i64 4204
  store i32 %25, ptr %26, align 4, !tbaa !38
  %27 = getelementptr inbounds nuw i8, ptr %4, i64 4208
  %28 = load i32, ptr %27, align 8, !tbaa !39
  %29 = getelementptr inbounds nuw i8, ptr %6, i64 4208
  store i32 %28, ptr %29, align 8, !tbaa !39
  %30 = getelementptr inbounds nuw i8, ptr %4, i64 4304
  %31 = load i32, ptr %30, align 8, !tbaa !40
  %32 = getelementptr inbounds nuw i8, ptr %6, i64 4304
  store i32 %31, ptr %32, align 8, !tbaa !40
  %33 = getelementptr inbounds nuw i8, ptr %4, i64 4308
  %34 = load i32, ptr %33, align 4, !tbaa !41
  %35 = getelementptr inbounds nuw i8, ptr %6, i64 4308
  store i32 %34, ptr %35, align 4, !tbaa !41
  %36 = getelementptr inbounds nuw i8, ptr %4, i64 25144
  %37 = load i32, ptr %36, align 8, !tbaa !42
  %38 = getelementptr inbounds nuw i8, ptr %6, i64 25144
  store i32 %37, ptr %38, align 8, !tbaa !42
  %39 = getelementptr inbounds nuw i8, ptr %4, i64 4284
  %40 = load i32, ptr %39, align 4, !tbaa !43
  %41 = getelementptr inbounds nuw i8, ptr %6, i64 4284
  store i32 %40, ptr %41, align 4, !tbaa !43
  %42 = getelementptr inbounds nuw i8, ptr %4, i64 4288
  %43 = load i32, ptr %42, align 8, !tbaa !44
  %44 = getelementptr inbounds nuw i8, ptr %6, i64 4288
  store i32 %43, ptr %44, align 8, !tbaa !44
  %45 = getelementptr inbounds nuw i8, ptr %4, i64 25168
  %46 = load i32, ptr %45, align 8, !tbaa !45
  %47 = getelementptr inbounds nuw i8, ptr %6, i64 25168
  store i32 %46, ptr %47, align 8, !tbaa !45
  %48 = getelementptr inbounds nuw i8, ptr %4, i64 25172
  %49 = load i32, ptr %48, align 4, !tbaa !46
  %50 = getelementptr inbounds nuw i8, ptr %6, i64 25172
  store i32 %49, ptr %50, align 4, !tbaa !46
  %51 = getelementptr inbounds nuw i8, ptr %4, i64 25176
  %52 = load i32, ptr %51, align 8, !tbaa !47
  %53 = getelementptr inbounds nuw i8, ptr %6, i64 25176
  store i32 %52, ptr %53, align 8, !tbaa !47
  %54 = getelementptr inbounds nuw i8, ptr %4, i64 25192
  %55 = load i32, ptr %54, align 8, !tbaa !48
  %56 = getelementptr inbounds nuw i8, ptr %6, i64 25192
  store i32 %55, ptr %56, align 8, !tbaa !48
  %57 = getelementptr inbounds nuw i8, ptr %4, i64 25204
  %58 = load i32, ptr %57, align 4, !tbaa !49
  %59 = getelementptr inbounds nuw i8, ptr %6, i64 25204
  store i32 %58, ptr %59, align 4, !tbaa !49
  %60 = getelementptr inbounds nuw i8, ptr %4, i64 25164
  %61 = load i32, ptr %60, align 4, !tbaa !50
  %62 = getelementptr inbounds nuw i8, ptr %6, i64 25164
  store i32 %61, ptr %62, align 4, !tbaa !50
  %63 = getelementptr inbounds nuw i8, ptr %6, i64 24824
  %64 = getelementptr inbounds nuw i8, ptr %4, i64 24824
  tail call void @llvm.memcpy.p0.p0.i64(ptr noundef nonnull align 8 dereferenceable(256) %63, ptr noundef nonnull align 8 dereferenceable(256) %64, i64 256, i1 false)
  %65 = load i32, ptr %9, align 8, !tbaa !27
  %66 = icmp slt i32 %65, 2
  br i1 %66, label %67, label %70

67:                                               ; preds = %8
  %68 = getelementptr inbounds nuw i8, ptr %6, i64 4312
  %69 = getelementptr inbounds nuw i8, ptr %4, i64 4312
  tail call void @llvm.memcpy.p0.p0.i64(ptr noundef nonnull align 8 dereferenceable(2560) %68, ptr noundef nonnull align 8 dereferenceable(2560) %69, i64 2560, i1 false)
  br label %70

70:                                               ; preds = %67, %8
  %71 = getelementptr inbounds nuw i8, ptr %6, i64 25216
  %72 = getelementptr inbounds nuw i8, ptr %6, i64 25212
  %73 = load i32, ptr %71, align 8, !tbaa !51
  %74 = load i32, ptr %72, align 4, !tbaa !52
  %75 = mul nsw i32 %74, %73
  %76 = icmp sgt i32 %75, 0
  br i1 %76, label %.lr.ph, label %._crit_edge

.lr.ph:                                           ; preds = %70
  %77 = getelementptr inbounds nuw i8, ptr %6, i64 25224
  %78 = getelementptr inbounds nuw i8, ptr %4, i64 25224
  br label %87

._crit_edge:                                      ; preds = %110, %70
  %79 = getelementptr inbounds nuw i8, ptr %6, i64 25232
  %80 = getelementptr inbounds nuw i8, ptr %4, i64 25232
  %81 = load ptr, ptr %80, align 8, !tbaa !53
  tail call void @av_refstruct_replace(ptr noundef nonnull %79, ptr noundef %81) #11
  %82 = getelementptr inbounds nuw i8, ptr %6, i64 4232
  %83 = getelementptr inbounds nuw i8, ptr %4, i64 4232
  tail call void @ff_progress_frame_replace(ptr noundef nonnull %82, ptr noundef nonnull %83) #11
  %84 = getelementptr inbounds nuw i8, ptr %6, i64 4264
  %85 = getelementptr inbounds nuw i8, ptr %4, i64 4264
  %86 = load ptr, ptr %85, align 8, !tbaa !54
  tail call void @av_refstruct_replace(ptr noundef nonnull %84, ptr noundef %86) #11
  br label %116

87:                                               ; preds = %.lr.ph, %110
  %indvars.iv = phi i64 [ 0, %.lr.ph ], [ %indvars.iv.next, %110 ]
  %88 = load ptr, ptr %77, align 8, !tbaa !55
  %89 = getelementptr inbounds nuw %struct.FFV1SliceContext, ptr %88, i64 %indvars.iv
  %90 = load ptr, ptr %78, align 8, !tbaa !55
  %91 = getelementptr inbounds nuw %struct.FFV1SliceContext, ptr %90, i64 %indvars.iv
  %92 = getelementptr inbounds nuw i8, ptr %89, i64 64
  %93 = getelementptr inbounds nuw i8, ptr %91, i64 64
  %94 = load ptr, ptr %93, align 8, !tbaa !56
  tail call void @av_refstruct_replace(ptr noundef nonnull %92, ptr noundef %94) #11
  %95 = load i32, ptr %9, align 8, !tbaa !27
  %96 = icmp slt i32 %95, 3
  br i1 %96, label %97, label %110

97:                                               ; preds = %87
  %98 = getelementptr inbounds nuw i8, ptr %91, i64 24
  %99 = load i32, ptr %98, align 8, !tbaa !61
  %100 = getelementptr inbounds nuw i8, ptr %89, i64 24
  store i32 %99, ptr %100, align 8, !tbaa !61
  %101 = getelementptr inbounds nuw i8, ptr %91, i64 28
  %102 = load i32, ptr %101, align 4, !tbaa !62
  %103 = getelementptr inbounds nuw i8, ptr %89, i64 28
  store i32 %102, ptr %103, align 4, !tbaa !62
  %104 = getelementptr inbounds nuw i8, ptr %91, i64 16
  %105 = load i32, ptr %104, align 8, !tbaa !63
  %106 = getelementptr inbounds nuw i8, ptr %89, i64 16
  store i32 %105, ptr %106, align 8, !tbaa !63
  %107 = getelementptr inbounds nuw i8, ptr %91, i64 20
  %108 = load i32, ptr %107, align 4, !tbaa !64
  %109 = getelementptr inbounds nuw i8, ptr %89, i64 20
  store i32 %108, ptr %109, align 4, !tbaa !64
  br label %110

110:                                              ; preds = %97, %87
  %indvars.iv.next = add nuw nsw i64 %indvars.iv, 1
  %111 = load i32, ptr %71, align 8, !tbaa !51
  %112 = load i32, ptr %72, align 4, !tbaa !52
  %113 = mul nsw i32 %112, %111
  %114 = sext i32 %113 to i64
  %115 = icmp slt i64 %indvars.iv.next, %114
  br i1 %115, label %87, label %._crit_edge, !llvm.loop !65

116:                                              ; preds = %2, %._crit_edge
  ret i32 0
}